target datalayout = "e-m:e-p270:32:32-p271:32:32-p272:64:64-i64:64-i128:128-f80:128-n8:16:32:64-S128"
target triple = "x86_64-pc-linux-gnu"

%class.btVector3 = type { [4 x float] }
%class.btGImpactShapeInterface = type { %class.btConcaveShape.base, %class.btAABB, i8, %class.btVector3, %class.btGImpactQuantizedBvh }
%class.btConcaveShape.base = type <{ %class.btCollisionShape, float }>
%class.btCollisionShape = type { ptr, i32, ptr, i32, i32 }
%class.btAABB = type { %class.btVector3, %class.btVector3 }
%class.btGImpactQuantizedBvh = type { %class.btQuantizedBvhTree, ptr }
%class.btQuantizedBvhTree = type { i32, [4 x i8], %class.GIM_QUANTIZED_BVH_NODE_ARRAY, %class.btAABB, %class.btVector3 }
%class.GIM_QUANTIZED_BVH_NODE_ARRAY = type { %class.btAlignedObjectArray.base, [7 x i8] }
%class.btAlignedObjectArray.base = type <{ [4 x i8], i32, i32, [4 x i8], ptr, i8 }>
%"class.btGImpactMeshShapePart::TrimeshPrimitiveManager" = type <{ %class.btPrimitiveManagerBase, float, [4 x i8], ptr, %class.btVector3, i32, i32, ptr, i32, i32, i32, [4 x i8], ptr, i32, i32, i32, [4 x i8] }>
%class.btPrimitiveManagerBase = type { ptr }

; Function Attrs: mustprogress uwtable
define linkonce_odr dso_local void @_ZN22btGImpactMeshShapePart23TrimeshPrimitiveManager6unlockEv(ptr noundef nonnull align 8 dereferenceable(92) %0) #2 comdat align 2 {
  %2 = alloca ptr, align 8
  store ptr %0, ptr %2, align 8, !tbaa !44
  %3 = load ptr, ptr %2, align 8
  %4 = getelementptr inbounds nuw %"class.btGImpactMeshShapePart::TrimeshPrimitiveManager", ptr %3, i32 0, i32 6
  %5 = load i32, ptr %4, align 4, !tbaa !50
  %6 = icmp eq i32 %5, 0
  br i1 %6, label %7, label %8

7:                                                ; preds = %1
  br label %26

8:                                                ; preds = %1
  %9 = getelementptr inbounds nuw %"class.btGImpactMeshShapePart::TrimeshPrimitiveManager", ptr %3, i32 0, i32 6
  %10 = load i32, ptr %9, align 4, !tbaa !50
  %11 = icmp sgt i32 %10, 1
  br i1 %11, label %12, label %16

12:                                               ; preds = %8
  %13 = getelementptr inbounds nuw %"class.btGImpactMeshShapePart::TrimeshPrimitiveManager", ptr %3, i32 0, i32 6
  %14 = load i32, ptr %13, align 4, !tbaa !50
  %15 = add nsw i32 %14, -1
  store i32 %15, ptr %13, align 4, !tbaa !50
  br label %26

16:                                               ; preds = %8
  %17 = getelementptr inbounds nuw %"class.btGImpactMeshShapePart::TrimeshPrimitiveManager", ptr %3, i32 0, i32 3
  %18 = load ptr, ptr %17, align 8, !tbaa !46
  %19 = getelementptr inbounds nuw %"class.btGImpactMeshShapePart::TrimeshPrimitiveManager", ptr %3, i32 0, i32 5
  %20 = load i32, ptr %19, align 8, !tbaa !47
  %21 = load ptr, ptr %18, align 8, !tbaa !16
  %22 = getelementptr inbounds ptr, ptr %21, i64 6
  %23 = load ptr, ptr %22, align 8
  call void %23(ptr noundef nonnull align 8 dereferenceable(24) %18, i32 noundef %20)
  %24 = getelementptr inbounds nuw %"class.btGImpactMeshShapePart::TrimeshPrimitiveManager", ptr %3, i32 0, i32 7
  store ptr null, ptr %24, align 8, !tbaa !51
  %25 = getelementptr inbounds nuw %"class.btGImpactMeshShapePart::TrimeshPrimitiveManager", ptr %3, i32 0, i32 6
  store i32 0, ptr %25, align 4, !tbaa !50
  br label %26

26:                                               ; preds = %16, %12, %7
  ret void
}

; Function Attrs: inlinehint mustprogress nounwind uwtable
define linkonce_odr dso_local noundef ptr @_ZNK21btGImpactQuantizedBvh19getPrimitiveManagerEv(ptr noundef nonnull align 8 dereferenceable(96) %0) #3 comdat align 2 {
  %2 = alloca ptr, align 8
  store ptr %0, ptr %2, align 8, !tbaa !57
  %3 = load ptr, ptr %2, align 8
  %4 = getelementptr inbounds nuw %class.btGImpactQuantizedBvh, ptr %3, i32 0, i32 1
  %5 = load ptr, ptr %4, align 8, !tbaa !60
  ret ptr %5
}

; Function Attrs: mustprogress uwtable
define dso_local void @_ZNK22btGImpactMeshShapePart17unlockChildShapesEv(ptr noundef nonnull align 8 dereferenceable(280) %0) unnamed_addr #2 align 2 {
  %2 = alloca ptr, align 8
  %3 = alloca ptr, align 8
  %4 = alloca ptr, align 8
  store ptr %0, ptr %2, align 8, !tbaa !12
  %5 = load ptr, ptr %2, align 8
  call void @llvm.lifetime.start.p0(i64 8, ptr %3) #14
  %6 = getelementptr inbounds nuw %class.btGImpactShapeInterface, ptr %5, i32 0, i32 4
  %7 = call noundef ptr @_ZNK21btGImpactQuantizedBvh19getPrimitiveManagerEv(ptr noundef nonnull align 8 dereferenceable(96) %6)
  store ptr %7, ptr %3, align 8, !tbaa !61
  call void @llvm.lifetime.start.p0(i64 8, ptr %4) #14
  %8 = load ptr, ptr %3, align 8, !tbaa !61
  store ptr %8, ptr %4, align 8, !tbaa !44
  %9 = load ptr, ptr %4, align 8, !tbaa !44
  call void @_ZN22btGImpactMeshShapePart23TrimeshPrimitiveManager6unlockEv(ptr noundef nonnull align 8 dereferenceable(92) %9)
  call void @llvm.lifetime.end.p0(i64 8, ptr %4) #14
  call void @llvm.lifetime.end.p0(i64 8, ptr %3) #14
  ret void
}