; Function Attrs: mustprogress uwtable
define dso_local void @_ZNK22btGImpactMeshShapePart17unlockChildShapesEv(ptr noundef nonnull readonly align 8 captures(none) dereferenceable(280) %0) unnamed_addr #0 align 2 {
  %2 = getelementptr inbounds nuw i8, ptr %0, i64 176
  %3 = load ptr, ptr %2, align 8, !tbaa !43
  %4 = getelementptr inbounds nuw i8, ptr %3, i64 44
  %5 = load i32, ptr %4, align 4, !tbaa !46
  %6 = icmp eq i32 %5, 0
  br i1 %6, label %_ZN22btGImpactMeshShapePart23TrimeshPrimitiveManager6unlockEv.exit, label %7

7:                                                ; preds = %1
  %8 = icmp sgt i32 %5, 1
  br i1 %8, label %9, label %11

9:                                                ; preds = %7
  %10 = add nsw i32 %5, -1
  br label %.sink.split.i

11:                                               ; preds = %7
  %12 = getelementptr inbounds nuw i8, ptr %3, i64 16
  %13 = load ptr, ptr %12, align 8, !tbaa !47
  %14 = getelementptr inbounds nuw i8, ptr %3, i64 40
  %15 = load i32, ptr %14, align 8, !tbaa !48
  %16 = load ptr, ptr %13, align 8, !tbaa !30
  %17 = getelementptr inbounds nuw i8, ptr %16, i64 48
  %18 = load ptr, ptr %17, align 8
  tail call void %18(ptr noundef nonnull align 8 dereferenceable(24) %13, i32 noundef %15)
  %19 = getelementptr inbounds nuw i8, ptr %3, i64 48
  store ptr null, ptr %19, align 8, !tbaa !49
  br label %.sink.split.i

.sink.split.i:                                    ; preds = %11, %9
  %.sink.i = phi i32 [ 0, %11 ], [ %10, %9 ]
  store i32 %.sink.i, ptr %4, align 4, !tbaa !46
  br label %_ZN22btGImpactMeshShapePart23TrimeshPrimitiveManager6unlockEv.exit

_ZN22btGImpactMeshShapePart23TrimeshPrimitiveManager6unlockEv.exit: ; preds = %1, %.sink.split.i
  ret void
}